target datalayout = "e-m:e-p270:32:32-p271:32:32-p272:64:64-i64:64-i128:128-f80:128-n8:16:32:64-S128"
target triple = "x86_64-pc-linux-gnu"

@.str.9 = private unnamed_addr constant [25 x i8] c"../openssl/test/dhtest.c\00", align 1
@.str.77 = private unnamed_addr constant [2 x i8] c"0\00", align 1
@.str.132 = private unnamed_addr constant [2 x i8] c"1\00", align 1
@.str.139 = private unnamed_addr constant [13 x i8] c"paramgen_ctx\00", align 1
@.str.140 = private unnamed_addr constant [37 x i8] c"EVP_PKEY_paramgen_init(paramgen_ctx)\00", align 1
@.str.141 = private unnamed_addr constant [46 x i8] c"EVP_PKEY_CTX_set_dhx_rfc5114(paramgen_ctx, 3)\00", align 1
@.str.142 = private unnamed_addr constant [47 x i8] c"EVP_PKEY_CTX_set_dhx_rfc5114(paramgen_ctx, 99)\00", align 1

; Function Attrs: nounwind uwtable
define internal i32 @dh_rfc5114_fix_nid_test() #0 {
  %1 = alloca i32, align 4
  %2 = alloca ptr, align 8
  call void @llvm.lifetime.start.p0(i64 4, ptr %1) #3
  store i32 0, ptr %1, align 4, !tbaa !15
  call void @llvm.lifetime.start.p0(i64 8, ptr %2) #3
  %3 = call ptr @EVP_PKEY_CTX_new_id(i32 noundef 920, ptr noundef null)
  store ptr %3, ptr %2, align 8, !tbaa !35
  %4 = load ptr, ptr %2, align 8, !tbaa !35
  %5 = call i32 @test_ptr(ptr noundef @.str.9, i32 noundef 763, ptr noundef @.str.139, ptr noundef %4)
  %6 = icmp ne i32 %5, 0
  br i1 %6, label %8, label %7

7:                                                ; preds = %0
  br label %27

8:                                                ; preds = %0
  %9 = load ptr, ptr %2, align 8, !tbaa !35
  %10 = call i32 @EVP_PKEY_paramgen_init(ptr noundef %9)
  %11 = call i32 @test_int_eq(ptr noundef @.str.9, i32 noundef 765, ptr noundef @.str.140, ptr noundef @.str.132, i32 noundef %10, i32 noundef 1)
  %12 = icmp ne i32 %11, 0
  br i1 %12, label %14, label %13

13:                                               ; preds = %8
  br label %27

14:                                               ; preds = %8
  %15 = load ptr, ptr %2, align 8, !tbaa !35
  %16 = call i32 @EVP_PKEY_CTX_set_dhx_rfc5114(ptr noundef %15, i32 noundef 3)
  %17 = call i32 @test_int_eq(ptr noundef @.str.9, i32 noundef 768, ptr noundef @.str.141, ptr noundef @.str.132, i32 noundef %16, i32 noundef 1)
  %18 = icmp ne i32 %17, 0
  br i1 %18, label %20, label %19

19:                                               ; preds = %14
  br label %27

20:                                               ; preds = %14
  %21 = load ptr, ptr %2, align 8, !tbaa !35
  %22 = call i32 @EVP_PKEY_CTX_set_dhx_rfc5114(ptr noundef %21, i32 noundef 99)
  %23 = call i32 @test_int_eq(ptr noundef @.str.9, i32 noundef 771, ptr noundef @.str.142, ptr noundef @.str.77, i32 noundef %22, i32 noundef 0)
  %24 = icmp ne i32 %23, 0
  br i1 %24, label %26, label %25

25:                                               ; preds = %20
  br label %27

26:                                               ; preds = %20
  store i32 1, ptr %1, align 4, !tbaa !15
  br label %27

27:                                               ; preds = %26, %25, %19, %13, %7
  %28 = load ptr, ptr %2, align 8, !tbaa !35
  call void @EVP_PKEY_CTX_free(ptr noundef %28)
  %29 = load i32, ptr %1, align 4, !tbaa !15
  call void @llvm.lifetime.end.p0(i64 8, ptr %2) #3
  call void @llvm.lifetime.end.p0(i64 4, ptr %1) #3
  ret i32 %29
}