; Function Attrs: nounwind uwtable
define internal range(i32 0, 2) i32 @dh_rfc5114_fix_nid_test() #0 {
  %1 = tail call ptr @EVP_PKEY_CTX_new_id(i32 noundef 920, ptr noundef null) #4
  %2 = tail call i32 @test_ptr(ptr noundef nonnull @.str.9, i32 noundef 763, ptr noundef nonnull @.str.139, ptr noundef %1) #4
  %.not = icmp eq i32 %2, 0
  br i1 %.not, label %12, label %3

3:                                                ; preds = %0
  %4 = tail call i32 @EVP_PKEY_paramgen_init(ptr noundef %1) #4
  %5 = tail call i32 @test_int_eq(ptr noundef nonnull @.str.9, i32 noundef 765, ptr noundef nonnull @.str.140, ptr noundef nonnull @.str.132, i32 noundef %4, i32 noundef 1) #4
  %.not5 = icmp eq i32 %5, 0
  br i1 %.not5, label %12, label %6

6:                                                ; preds = %3
  %7 = tail call i32 @EVP_PKEY_CTX_set_dhx_rfc5114(ptr noundef %1, i32 noundef 3) #4
  %8 = tail call i32 @test_int_eq(ptr noundef nonnull @.str.9, i32 noundef 768, ptr noundef nonnull @.str.141, ptr noundef nonnull @.str.132, i32 noundef %7, i32 noundef 1) #4
  %.not6 = icmp eq i32 %8, 0
  br i1 %.not6, label %12, label %9

9:                                                ; preds = %6
  %10 = tail call i32 @EVP_PKEY_CTX_set_dhx_rfc5114(ptr noundef %1, i32 noundef 99) #4
  %11 = tail call i32 @test_int_eq(ptr noundef nonnull @.str.9, i32 noundef 771, ptr noundef nonnull @.str.142, ptr noundef nonnull @.str.77, i32 noundef %10, i32 noundef 0) #4
  %.not7 = icmp ne i32 %11, 0
  %spec.select = zext i1 %.not7 to i32
  br label %12

12:                                               ; preds = %9, %6, %3, %0
  %.0 = phi i32 [ 0, %6 ], [ 0, %3 ], [ 0, %0 ], [ %spec.select, %9 ]
  tail call void @EVP_PKEY_CTX_free(ptr noundef %1) #4
  ret i32 %.0
}